target datalayout = "e-m:e-p270:32:32-p271:32:32-p272:64:64-i64:64-i128:128-f80:128-n8:16:32:64-S128"
target triple = "x86_64-pc-linux-gnu"

%struct.BuildTarget = type { i32, ptr, ptr, ptr, ptr, ptr, ptr, ptr, ptr, ptr, ptr, ptr, ptr, ptr, ptr, ptr, ptr, ptr, ptr, i8, i8, i8, i8, i8, i8, i8, i8, i8, i8, i8, i8, i8, i8, i8, i8, i8, i8, i8, i8, i32, i32, i32, i32, i32, i32, i32, i32, i32, i32, i32, i32, i32, i32, i32, i32, i32, i32, ptr, ptr, ptr, ptr, ptr, ptr, ptr, ptr, ptr, ptr, %struct.anon.86, %struct.anon.87, %struct.anon.88, %struct.anon.89 }
%struct.anon.86 = type { i16, i32, i32, i32 }
%struct.anon.87 = type { ptr, ptr, ptr, ptr }
%struct.anon.88 = type { ptr, ptr, i32, i8 }
%struct.anon.89 = type { ptr, ptr }
%struct.GenContext_ = type { i8, ptr, ptr, ptr, ptr, ptr, ptr, ptr, ptr, ptr, ptr, ptr, ptr, ptr, ptr, ptr, ptr, ptr, ptr, ptr, ptr, ptr, ptr, ptr, ptr, ptr, ptr, ptr, ptr, ptr, ptr, ptr, ptr, %struct.anon.85, i32, i32, %struct.DebugContext, ptr, ptr, ptr, %struct.BEValue, i8, %union.SourceSpan, ptr, ptr, ptr, ptr }
%struct.anon.85 = type { ptr, ptr, ptr }
%struct.DebugContext = type { i16, ptr, ptr, %struct.DebugFile_, ptr, ptr, ptr, ptr }
%struct.DebugFile_ = type { i16, ptr }
%struct.BEValue = type { i8, i32, ptr, ptr, ptr }
%union.SourceSpan = type { i64 }
%struct.Decl_ = type { ptr, ptr, %union.SourceSpan, i64, %union.anon, i32, %union.anon.0, i64, ptr, ptr, ptr, %union.anon.1 }
%union.anon = type { ptr }
%union.anon.0 = type { i16 }
%union.anon.1 = type { %struct.FuncDecl }
%struct.FuncDecl = type { i32, [4 x i8], %struct.Signature_, i32, i32, %union.anon.8 }
%struct.Signature_ = type <{ %struct.CalleeAttributes, i16, i8, i32, i32, [4 x i8], ptr }>
%struct.CalleeAttributes = type { i8 }
%union.anon.8 = type { %struct.anon.9 }
%struct.anon.9 = type { i16, %union.anon.10 }
%union.anon.10 = type { ptr }
%struct.anon = type { i16, i8, i8, i32 }

@active_target = external global %struct.BuildTarget, align 8

; Function Attrs: nounwind uwtable
define dso_local ptr @llvm_get_debug_type(ptr noundef %0, ptr noundef %1) #0 {
  %3 = alloca ptr, align 8
  %4 = alloca ptr, align 8
  store ptr %0, ptr %3, align 8
  store ptr %1, ptr %4, align 8
  %5 = load ptr, ptr %3, align 8
  %6 = load ptr, ptr %4, align 8
  %7 = load ptr, ptr %3, align 8
  %8 = getelementptr inbounds %struct.GenContext_, ptr %7, i32 0, i32 36
  %9 = getelementptr inbounds %struct.DebugContext, ptr %8, i32 0, i32 3
  %10 = getelementptr inbounds %struct.DebugFile_, ptr %9, i32 0, i32 1
  %11 = load ptr, ptr %10, align 8
  %12 = call ptr @llvm_get_debug_type_internal(ptr noundef %5, ptr noundef %6, ptr noundef %11)
  ret ptr %12
}

; Function Attrs: nounwind uwtable
define dso_local void @llvm_emit_debug_function(ptr noundef %0, ptr noundef %1) #0 {
  %3 = alloca ptr, align 8
  %4 = alloca ptr, align 8
  %5 = alloca i32, align 4
  %6 = alloca i32, align 4
  %7 = alloca ptr, align 8
  store ptr %0, ptr %3, align 8
  store ptr %1, ptr %4, align 8
  store i32 0, ptr %5, align 4
  %8 = load ptr, ptr %4, align 8
  %9 = getelementptr inbounds %struct.Decl_, ptr %8, i32 0, i32 11
  %10 = getelementptr inbounds %struct.FuncDecl, ptr %9, i32 0, i32 3
  %11 = load i32, ptr %10, align 8
  %12 = icmp ne i32 %11, 0
  br i1 %12, label %14, label %13

13:                                               ; preds = %2
  br label %91

14:                                               ; preds = %2
  %15 = load i32, ptr %5, align 4
  %16 = or i32 %15, 256
  store i32 %16, ptr %5, align 4
  %17 = load ptr, ptr %4, align 8
  %18 = getelementptr inbounds %struct.Decl_, ptr %17, i32 0, i32 11
  %19 = getelementptr inbounds %struct.FuncDecl, ptr %18, i32 0, i32 2
  %20 = getelementptr inbounds %struct.Signature_, ptr %19, i32 0, i32 0
  %21 = load i8, ptr %20, align 8
  %22 = lshr i8 %21, 3
  %23 = and i8 %22, 1
  %24 = trunc i8 %23 to i1
  br i1 %24, label %25, label %28

25:                                               ; preds = %14
  %26 = load i32, ptr %5, align 4
  %27 = or i32 %26, 1048576
  store i32 %27, ptr %5, align 4
  br label %28

28:                                               ; preds = %25, %14
  %29 = load ptr, ptr %4, align 8
  %30 = getelementptr inbounds %struct.Decl_, ptr %29, i32 0, i32 2
  %31 = getelementptr inbounds %struct.anon, ptr %30, i32 0, i32 3
  %32 = load i32, ptr %31, align 4
  store i32 %32, ptr %6, align 4
  %33 = load i32, ptr %6, align 4
  %34 = icmp ne i32 %33, 0
  br i1 %34, label %36, label %35

35:                                               ; preds = %28
  store i32 1, ptr %6, align 4
  br label %36

36:                                               ; preds = %35, %28
  %37 = load ptr, ptr %3, align 8
  %38 = load ptr, ptr %4, align 8
  %39 = getelementptr inbounds %struct.Decl_, ptr %38, i32 0, i32 10
  %40 = load ptr, ptr %39, align 8
  %41 = call ptr @llvm_get_debug_type(ptr noundef %37, ptr noundef %40)
  store ptr %41, ptr %7, align 8
  %42 = load ptr, ptr %3, align 8
  %43 = getelementptr inbounds %struct.GenContext_, ptr %42, i32 0, i32 36
  %44 = getelementptr inbounds %struct.DebugContext, ptr %43, i32 0, i32 1
  %45 = load ptr, ptr %44, align 8
  %46 = load ptr, ptr %3, align 8
  %47 = getelementptr inbounds %struct.GenContext_, ptr %46, i32 0, i32 36
  %48 = getelementptr inbounds %struct.DebugContext, ptr %47, i32 0, i32 3
  %49 = getelementptr inbounds %struct.DebugFile_, ptr %48, i32 0, i32 1
  %50 = load ptr, ptr %49, align 8
  %51 = load ptr, ptr %4, align 8
  %52 = getelementptr inbounds %struct.Decl_, ptr %51, i32 0, i32 0
  %53 = load ptr, ptr %52, align 8
  %54 = load ptr, ptr %4, align 8
  %55 = getelementptr inbounds %struct.Decl_, ptr %54, i32 0, i32 0
  %56 = load ptr, ptr %55, align 8
  %57 = call i64 @strlen(ptr noundef %56) #5
  %58 = load ptr, ptr %4, align 8
  %59 = getelementptr inbounds %struct.Decl_, ptr %58, i32 0, i32 1
  %60 = load ptr, ptr %59, align 8
  %61 = load ptr, ptr %4, align 8
  %62 = getelementptr inbounds %struct.Decl_, ptr %61, i32 0, i32 1
  %63 = load ptr, ptr %62, align 8
  %64 = call i64 @strlen(ptr noundef %63) #5
  %65 = load ptr, ptr %3, align 8
  %66 = getelementptr inbounds %struct.GenContext_, ptr %65, i32 0, i32 36
  %67 = getelementptr inbounds %struct.DebugContext, ptr %66, i32 0, i32 3
  %68 = getelementptr inbounds %struct.DebugFile_, ptr %67, i32 0, i32 1
  %69 = load ptr, ptr %68, align 8
  %70 = load i32, ptr %6, align 4
  %71 = load ptr, ptr %7, align 8
  %72 = load ptr, ptr %4, align 8
  %73 = call zeroext i1 @decl_is_local(ptr noundef %72)
  %74 = zext i1 %73 to i32
  %75 = load i32, ptr %6, align 4
  %76 = load i32, ptr %5, align 4
  %77 = load i32, ptr getelementptr inbounds (%struct.BuildTarget, ptr @active_target, i32 0, i32 42), align 8
  %78 = icmp ne i32 %77, 0
  %79 = zext i1 %78 to i32
  %80 = call ptr @LLVMDIBuilderCreateFunction(ptr noundef %45, ptr noundef %50, ptr noundef %53, i64 noundef %57, ptr noundef %60, i64 noundef %64, ptr noundef %69, i32 noundef %70, ptr noundef %71, i32 noundef %74, i32 noundef 1, i32 noundef %75, i32 noundef %76, i32 noundef %79)
  %81 = load ptr, ptr %3, align 8
  %82 = getelementptr inbounds %struct.GenContext_, ptr %81, i32 0, i32 36
  %83 = getelementptr inbounds %struct.DebugContext, ptr %82, i32 0, i32 5
  store ptr %80, ptr %83, align 8
  %84 = load ptr, ptr %4, align 8
  %85 = getelementptr inbounds %struct.Decl_, ptr %84, i32 0, i32 4
  %86 = load ptr, ptr %85, align 8
  %87 = load ptr, ptr %3, align 8
  %88 = getelementptr inbounds %struct.GenContext_, ptr %87, i32 0, i32 36
  %89 = getelementptr inbounds %struct.DebugContext, ptr %88, i32 0, i32 5
  %90 = load ptr, ptr %89, align 8
  call void @LLVMSetSubprogram(ptr noundef %86, ptr noundef %90)
  br label %91

91:                                               ; preds = %36, %13
  ret void
}