; Function Attrs: nounwind uwtable
define dso_local void @llvm_emit_debug_function(ptr nocapture noundef %0, ptr noundef %1) local_unnamed_addr #0 {
  %3 = getelementptr inbounds i8, ptr %1, i64 112
  %4 = load i32, ptr %3, align 8
  %.not = icmp eq i32 %4, 0
  br i1 %.not, label %33, label %5

5:                                                ; preds = %2
  %6 = getelementptr inbounds i8, ptr %1, i64 88
  %7 = load i8, ptr %6, align 8
  %8 = and i8 %7, 8
  %.not22 = icmp eq i8 %8, 0
  %spec.select = select i1 %.not22, i32 256, i32 1048832
  %9 = getelementptr inbounds i8, ptr %1, i64 20
  %10 = load i32, ptr %9, align 4
  %spec.store.select = tail call i32 @llvm.umax.i32(i32 %10, i32 1)
  %11 = getelementptr inbounds i8, ptr %1, i64 72
  %12 = load ptr, ptr %11, align 8
  %13 = getelementptr inbounds i8, ptr %0, i64 328
  %14 = load ptr, ptr %13, align 8
  %15 = tail call fastcc ptr @llvm_get_debug_type_internal(ptr noundef %0, ptr noundef %12, ptr noundef %14)
  %16 = getelementptr inbounds i8, ptr %0, i64 304
  %17 = load ptr, ptr %16, align 8
  %18 = load ptr, ptr %13, align 8
  %19 = load ptr, ptr %1, align 8
  %20 = tail call i64 @strlen(ptr noundef nonnull dereferenceable(1) %19) #9
  %21 = getelementptr inbounds i8, ptr %1, i64 8
  %22 = load ptr, ptr %21, align 8
  %23 = tail call i64 @strlen(ptr noundef nonnull dereferenceable(1) %22) #9
  %24 = tail call zeroext i1 @decl_is_local(ptr noundef nonnull %1) #8
  %25 = zext i1 %24 to i32
  %26 = load i32, ptr getelementptr inbounds (%struct.BuildTarget, ptr @active_target, i64 0, i32 42), align 8
  %27 = icmp ne i32 %26, 0
  %28 = zext i1 %27 to i32
  %29 = tail call ptr @LLVMDIBuilderCreateFunction(ptr noundef %17, ptr noundef %18, ptr noundef %19, i64 noundef %20, ptr noundef %22, i64 noundef %23, ptr noundef %18, i32 noundef %spec.store.select, ptr noundef %15, i32 noundef %25, i32 noundef 1, i32 noundef %spec.store.select, i32 noundef %spec.select, i32 noundef %28) #8
  %30 = getelementptr inbounds i8, ptr %0, i64 344
  store ptr %29, ptr %30, align 8
  %31 = getelementptr inbounds i8, ptr %1, i64 32
  %32 = load ptr, ptr %31, align 8
  tail call void @LLVMSetSubprogram(ptr noundef %32, ptr noundef %29) #8
  br label %33

33:                                               ; preds = %2, %5
  ret void
}